target datalayout = "e-m:e-p270:32:32-p271:32:32-p272:64:64-i64:64-i128:128-f80:128-n8:16:32:64-S128"
target triple = "x86_64-pc-linux-gnu"

; Function Attrs: mustprogress nounwind uwtable
define internal noundef double @_ZL8safe_expd(double noundef %0) #0 {
  %2 = alloca double, align 8
  %3 = alloca double, align 8
  %4 = alloca double, align 8
  %5 = alloca double, align 8
  %6 = alloca i32, align 4
  store double %0, ptr %3, align 8, !tbaa !16
  call void @llvm.lifetime.start.p0(i64 8, ptr %4) #14
  store double 2.000000e+02, ptr %4, align 8, !tbaa !16
  call void @llvm.lifetime.start.p0(i64 8, ptr %5) #14
  %7 = load double, ptr %4, align 8, !tbaa !16
  %8 = fneg double %7
  store double %8, ptr %5, align 8, !tbaa !16
  %9 = load double, ptr %3, align 8, !tbaa !16
  %10 = load double, ptr %5, align 8, !tbaa !16
  %11 = fcmp ole double %9, %10
  br i1 %11, label %12, label %15

12:                                               ; preds = %1
  %13 = load double, ptr %5, align 8, !tbaa !16
  %14 = call double @exp(double noundef %13) #14, !tbaa !4
  store double %14, ptr %2, align 8
  store i32 1, ptr %6, align 4
  br label %25

15:                                               ; preds = %1
  %16 = load double, ptr %3, align 8, !tbaa !16
  %17 = load double, ptr %4, align 8, !tbaa !16
  %18 = fcmp oge double %16, %17
  br i1 %18, label %19, label %22

19:                                               ; preds = %15
  %20 = load double, ptr %4, align 8, !tbaa !16
  %21 = call double @exp(double noundef %20) #14, !tbaa !4
  store double %21, ptr %2, align 8
  store i32 1, ptr %6, align 4
  br label %25

22:                                               ; preds = %15
  %23 = load double, ptr %3, align 8, !tbaa !16
  %24 = call double @exp(double noundef %23) #14, !tbaa !4
  store double %24, ptr %2, align 8
  store i32 1, ptr %6, align 4
  br label %25

25:                                               ; preds = %22, %19, %12
  call void @llvm.lifetime.end.p0(i64 8, ptr %5) #14
  call void @llvm.lifetime.end.p0(i64 8, ptr %4) #14
  %26 = load double, ptr %2, align 8
  ret double %26
}

; Function Attrs: mustprogress nounwind uwtable
define internal noundef double @_ZL14lmc_exp_5_parmdPKd(double noundef %0, ptr noundef %1) #0 {
  %3 = alloca double, align 8
  %4 = alloca ptr, align 8
  %5 = alloca double, align 8
  %6 = alloca double, align 8
  store double %0, ptr %3, align 8, !tbaa !16
  store ptr %1, ptr %4, align 8, !tbaa !18
  call void @llvm.lifetime.start.p0(i64 8, ptr %5) #14
  call void @llvm.lifetime.start.p0(i64 8, ptr %6) #14
  %7 = load double, ptr %3, align 8, !tbaa !16
  %8 = fneg double %7
  %9 = load ptr, ptr %4, align 8, !tbaa !18
  %10 = getelementptr inbounds double, ptr %9, i64 1
  %11 = load double, ptr %10, align 8, !tbaa !16
  %12 = call double @llvm.fabs.f64(double %11)
  %13 = fdiv double %8, %12
  %14 = call noundef double @_ZL8safe_expd(double noundef %13)
  store double %14, ptr %5, align 8, !tbaa !16
  %15 = load double, ptr %3, align 8, !tbaa !16
  %16 = fneg double %15
  %17 = load ptr, ptr %4, align 8, !tbaa !18
  %18 = getelementptr inbounds double, ptr %17, i64 1
  %19 = load double, ptr %18, align 8, !tbaa !16
  %20 = call double @llvm.fabs.f64(double %19)
  %21 = load ptr, ptr %4, align 8, !tbaa !18
  %22 = getelementptr inbounds double, ptr %21, i64 3
  %23 = load double, ptr %22, align 8, !tbaa !16
  %24 = call double @llvm.fabs.f64(double %23)
  %25 = fadd double %20, %24
  %26 = fdiv double %16, %25
  %27 = call noundef double @_ZL8safe_expd(double noundef %26)
  store double %27, ptr %6, align 8, !tbaa !16
  %28 = load ptr, ptr %4, align 8, !tbaa !18
  %29 = getelementptr inbounds double, ptr %28, i64 0
  %30 = load double, ptr %29, align 8, !tbaa !16
  %31 = load double, ptr %5, align 8, !tbaa !16
  %32 = load ptr, ptr %4, align 8, !tbaa !18
  %33 = getelementptr inbounds double, ptr %32, i64 2
  %34 = load double, ptr %33, align 8, !tbaa !16
  %35 = load double, ptr %6, align 8, !tbaa !16
  %36 = fmul double %34, %35
  %37 = call double @llvm.fmuladd.f64(double %30, double %31, double %36)
  %38 = load ptr, ptr %4, align 8, !tbaa !18
  %39 = getelementptr inbounds double, ptr %38, i64 4
  %40 = load double, ptr %39, align 8, !tbaa !16
  %41 = fadd double %37, %40
  call void @llvm.lifetime.end.p0(i64 8, ptr %6) #14
  call void @llvm.lifetime.end.p0(i64 8, ptr %5) #14
  ret double %41
}