; Function Attrs: mustprogress nofree nounwind willreturn memory(write, argmem: readwrite) uwtable
define internal noundef double @_ZL14lmc_exp_5_parmdPKd(double noundef %0, ptr noundef readonly captures(none) %1) #4 {
  %3 = fneg double %0
  %4 = getelementptr inbounds nuw i8, ptr %1, i64 8
  %5 = load double, ptr %4, align 8, !tbaa !13
  %6 = tail call double @llvm.fabs.f64(double %5)
  %7 = fdiv double %3, %6
  %8 = fcmp ugt double %7, -2.000000e+02
  br i1 %8, label %9, label %_ZL8safe_expd.exit

9:                                                ; preds = %2
  %10 = fcmp ult double %7, 2.000000e+02
  br i1 %10, label %11, label %_ZL8safe_expd.exit

11:                                               ; preds = %9
  %12 = tail call double @exp(double noundef %7) #18, !tbaa !4
  br label %_ZL8safe_expd.exit

_ZL8safe_expd.exit:                               ; preds = %2, %9, %11
  %.0.i = phi double [ %12, %11 ], [ 0x2DE6061812054CFA, %2 ], [ 0x51F73F60EA79F5B9, %9 ]
  %13 = getelementptr inbounds nuw i8, ptr %1, i64 24
  %14 = load double, ptr %13, align 8, !tbaa !13
  %15 = tail call double @llvm.fabs.f64(double %14)
  %16 = fadd double %6, %15
  %17 = fdiv double %3, %16
  %18 = fcmp ugt double %17, -2.000000e+02
  br i1 %18, label %19, label %_ZL8safe_expd.exit11

19:                                               ; preds = %_ZL8safe_expd.exit
  %20 = fcmp ult double %17, 2.000000e+02
  br i1 %20, label %21, label %_ZL8safe_expd.exit11

21:                                               ; preds = %19
  %22 = tail call double @exp(double noundef %17) #18, !tbaa !4
  br label %_ZL8safe_expd.exit11

_ZL8safe_expd.exit11:                             ; preds = %_ZL8safe_expd.exit, %19, %21
  %.0.i10 = phi double [ %22, %21 ], [ 0x2DE6061812054CFA, %_ZL8safe_expd.exit ], [ 0x51F73F60EA79F5B9, %19 ]
  %23 = load double, ptr %1, align 8, !tbaa !13
  %24 = getelementptr inbounds nuw i8, ptr %1, i64 16
  %25 = load double, ptr %24, align 8, !tbaa !13
  %26 = fmul double %.0.i10, %25
  %27 = tail call double @llvm.fmuladd.f64(double %23, double %.0.i, double %26)
  %28 = getelementptr inbounds nuw i8, ptr %1, i64 32
  %29 = load double, ptr %28, align 8, !tbaa !13
  %30 = fadd double %29, %27
  ret double %30
}